; Function Attrs: mustprogress nounwind uwtable
define noundef i32 @_Z5yylexP7YYSTYPERN7glslang13TParseContextE(ptr noundef %0, ptr noundef nonnull readonly align 8 captures(none) dereferenceable(30232) %1) local_unnamed_addr #0 {
  %3 = alloca %"class.glslang::TParserToken", align 8
  store ptr %0, ptr %3, align 8
  %4 = getelementptr inbounds nuw i8, ptr %1, i64 488
  %5 = load ptr, ptr %4, align 8
  %6 = getelementptr inbounds nuw i8, ptr %1, i64 496
  %7 = load ptr, ptr %6, align 8
  %8 = call noundef i32 @_ZN7glslang12TScanContext8tokenizeEPNS_10TPpContextERNS_12TParserTokenE(ptr noundef nonnull align 8 dereferenceable(76) %5, ptr noundef %7, ptr noundef nonnull align 8 dereferenceable(8) %3)
  ret i32 %8
}